; Function Attrs: mustprogress uwtable
define void @_ZN2cv15line_descriptor16BinaryDescriptor22createBinaryDescriptorENS1_6ParamsE(ptr dead_on_unwind noalias nocapture writable writeonly sret(%"struct.cv::Ptr.42") align 8 %0, i64 %1, i64 %2) local_unnamed_addr #5 align 2 personality ptr @__gxx_personality_v0 {
  %4 = alloca %"struct.cv::line_descriptor::BinaryDescriptor::Params", align 8
  store i64 %1, ptr %4, align 8
  %5 = getelementptr inbounds i8, ptr %4, i64 8
  store i64 %2, ptr %5, align 8
  %6 = tail call noalias noundef nonnull dereferenceable(192) ptr @_Znwm(i64 noundef 192) #22
  invoke void @_ZN2cv15line_descriptor16BinaryDescriptorC1ERKNS1_6ParamsE(ptr noundef nonnull align 8 dereferenceable(192) %6, ptr noundef nonnull align 4 dereferenceable(16) %4)
          to label %7 unwind label %26

7:                                                ; preds = %3
  store ptr %6, ptr %0, align 8
  %8 = getelementptr inbounds i8, ptr %0, i64 8
  store ptr null, ptr %8, align 8
  %9 = invoke noalias noundef nonnull dereferenceable(24) ptr @_Znwm(i64 noundef 24) #22
          to label %_ZN2cv3PtrINS_15line_descriptor16BinaryDescriptorEEC2IS2_EEPT_.exit unwind label %10

10:                                               ; preds = %7
  %11 = landingpad { ptr, i32 }
          catch ptr null
  %12 = extractvalue { ptr, i32 } %11, 0
  %13 = call ptr @__cxa_begin_catch(ptr %12) #23
  %14 = load ptr, ptr %6, align 8
  %15 = getelementptr inbounds i8, ptr %14, i64 8
  %16 = load ptr, ptr %15, align 8
  call void %16(ptr noundef nonnull align 8 dereferenceable(192) %6) #23
  invoke void @__cxa_rethrow() #25
          to label %22 unwind label %17

17:                                               ; preds = %10
  %18 = landingpad { ptr, i32 }
          cleanup
  invoke void @__cxa_end_catch()
          to label %common.resume unwind label %19

common.resume:                                    ; preds = %17, %26
  %common.resume.op = phi { ptr, i32 } [ %27, %26 ], [ %18, %17 ]
  resume { ptr, i32 } %common.resume.op

19:                                               ; preds = %17
  %20 = landingpad { ptr, i32 }
          catch ptr null
  %21 = extractvalue { ptr, i32 } %20, 0
  call void @__clang_call_terminate(ptr %21) #26
  unreachable

22:                                               ; preds = %10
  unreachable

_ZN2cv3PtrINS_15line_descriptor16BinaryDescriptorEEC2IS2_EEPT_.exit: ; preds = %7
  %23 = getelementptr inbounds i8, ptr %9, i64 8
  store i32 1, ptr %23, align 8
  %24 = getelementptr inbounds i8, ptr %9, i64 12
  store i32 1, ptr %24, align 4
  store ptr getelementptr inbounds inrange(-16, 40) (i8, ptr @_ZTVSt15_Sp_counted_ptrIPN2cv15line_descriptor16BinaryDescriptorELN9__gnu_cxx12_Lock_policyE2EE, i64 16), ptr %9, align 8
  %25 = getelementptr inbounds i8, ptr %9, i64 16
  store ptr %6, ptr %25, align 8
  store ptr %9, ptr %8, align 8
  ret void

26:                                               ; preds = %3
  %27 = landingpad { ptr, i32 }
          cleanup
  call void @_ZdlPv(ptr noundef nonnull %6) #24
  br label %common.resume
}